target datalayout = "e-m:e-p270:32:32-p271:32:32-p272:64:64-i64:64-i128:128-f80:128-n8:16:32:64-S128"
target triple = "x86_64-pc-linux-gnu"

%class.symbol = type { ptr }
%class.goal2sat = type <{ ptr, i32, [4 x i8] }>
%"struct.goal2sat::imp" = type <{ %"class.sat::sat_internalizer", ptr, %class.pb_util, %class.svector, %class.svector.2, %class.obj_map, %class.u_map, %class.svector.6, %class.ref_vector, %class.obj_hashtable, ptr, ptr, ptr, ptr, i8, [7 x i8], i64, %class.ref_vector.11, %class.ref_vector.16, i8, i8, i8, [5 x i8], %class.svector.2, %class.symbol, i32, [4 x i8] }>
%"class.sat::sat_internalizer" = type { ptr }
%class.pb_util = type { ptr, i32, %class.vector, %class.vector.0, %class.rational }
%class.vector = type { ptr }
%class.vector.0 = type { ptr }
%class.rational = type { %class.mpq }
%class.mpq = type { %class.mpz, %class.mpz }
%class.mpz = type { i32, i8, ptr }
%class.svector = type { %class.vector.1 }
%class.vector.1 = type { ptr }
%class.obj_map = type { %class.core_hashtable }
%class.core_hashtable = type <{ ptr, i32, i32, i32, [4 x i8] }>
%class.u_map = type { %class.map }
%class.map = type { %class.table2map }
%class.table2map = type { %class.core_hashtable.4 }
%class.core_hashtable.4 = type <{ ptr, i32, i32, i32, [4 x i8] }>
%class.svector.6 = type { %class.vector.7 }
%class.vector.7 = type { ptr }
%class.ref_vector = type { %class.ref_vector_core }
%class.ref_vector_core = type { %class.ref_manager_wrapper, %class.ptr_vector }
%class.ref_manager_wrapper = type { ptr }
%class.ptr_vector = type { %class.vector.8 }
%class.vector.8 = type { ptr }
%class.obj_hashtable = type { %class.core_hashtable.base.10, [4 x i8] }
%class.core_hashtable.base.10 = type <{ ptr, i32, i32, i32 }>
%class.ref_vector.11 = type { %class.ref_vector_core.12 }
%class.ref_vector_core.12 = type { %class.ref_manager_wrapper.13, %class.ptr_vector.14 }
%class.ref_manager_wrapper.13 = type { ptr }
%class.ptr_vector.14 = type { %class.vector.15 }
%class.vector.15 = type { ptr }
%class.ref_vector.16 = type { %class.ref_vector_core.17 }
%class.ref_vector_core.17 = type { %class.ref_manager_wrapper.18, %class.ptr_vector.19 }
%class.ref_manager_wrapper.18 = type { ptr }
%class.ptr_vector.19 = type { %class.vector.20 }
%class.vector.20 = type { ptr }
%class.svector.2 = type { %class.vector.3 }
%class.vector.3 = type { ptr }

@_ZTIN3sat9extensionE = linkonce_odr hidden constant { ptr, ptr } { ptr getelementptr inbounds (ptr, ptr @_ZTVN10__cxxabiv117__class_type_infoE, i64 2), ptr @_ZTSN3sat9extensionE }, comdat, align 8
@_ZTIN3euf6solverE = external constant ptr

; Function Attrs: mustprogress uwtable
define linkonce_odr hidden void @_ZN8goal2sat3imp12update_modelER3refI5modelE(ptr noundef nonnull align 8 dereferenceable(300) %0, ptr noundef nonnull align 8 dereferenceable(8) %1) #5 comdat align 2 {
  %3 = alloca ptr, align 8
  %4 = alloca ptr, align 8
  %5 = alloca ptr, align 8
  store ptr %0, ptr %3, align 8, !tbaa !15
  store ptr %1, ptr %4, align 8, !tbaa !130
  %6 = load ptr, ptr %3, align 8
  call void @llvm.lifetime.start.p0(i64 8, ptr %5) #3
  %7 = getelementptr inbounds nuw %"struct.goal2sat::imp", ptr %6, i32 0, i32 10
  %8 = load ptr, ptr %7, align 8, !tbaa !18
  %9 = load ptr, ptr %8, align 8, !tbaa !16
  %10 = getelementptr inbounds ptr, ptr %9, i64 11
  %11 = load ptr, ptr %10, align 8
  %12 = call noundef ptr %11(ptr noundef nonnull align 8 dereferenceable(16) %8)
  %13 = icmp eq ptr %12, null
  br i1 %13, label %16, label %14

14:                                               ; preds = %2
  %15 = call ptr @__dynamic_cast(ptr %12, ptr @_ZTIN3sat9extensionE, ptr @_ZTIN3euf6solverE, i64 0) #3
  br label %17

16:                                               ; preds = %2
  br label %17

17:                                               ; preds = %16, %14
  %18 = phi ptr [ %15, %14 ], [ null, %16 ]
  store ptr %18, ptr %5, align 8, !tbaa !80
  %19 = load ptr, ptr %5, align 8, !tbaa !80
  %20 = icmp ne ptr %19, null
  br i1 %20, label %21, label %24

21:                                               ; preds = %17
  %22 = load ptr, ptr %5, align 8, !tbaa !80
  %23 = load ptr, ptr %4, align 8, !tbaa !130
  call void @_ZN3euf6solver12update_modelER3refI5modelEb(ptr noundef nonnull align 8 dereferenceable(8456) %22, ptr noundef nonnull align 8 dereferenceable(8) %23, i1 noundef zeroext true)
  br label %24

24:                                               ; preds = %21, %17
  call void @llvm.lifetime.end.p0(i64 8, ptr %5) #3
  ret void
}

; Function Attrs: mustprogress uwtable
define hidden void @_ZN8goal2sat12update_modelER3refI5modelE(ptr noundef nonnull align 8 dereferenceable(12) %0, ptr noundef nonnull align 8 dereferenceable(8) %1) #5 align 2 {
  %3 = alloca ptr, align 8
  %4 = alloca ptr, align 8
  store ptr %0, ptr %3, align 8, !tbaa !8
  store ptr %1, ptr %4, align 8, !tbaa !130
  %5 = load ptr, ptr %3, align 8
  %6 = getelementptr inbounds nuw %class.goal2sat, ptr %5, i32 0, i32 0
  %7 = load ptr, ptr %6, align 8, !tbaa !10
  %8 = icmp ne ptr %7, null
  br i1 %8, label %9, label %13

9:                                                ; preds = %2
  %10 = getelementptr inbounds nuw %class.goal2sat, ptr %5, i32 0, i32 0
  %11 = load ptr, ptr %10, align 8, !tbaa !10
  %12 = load ptr, ptr %4, align 8, !tbaa !130
  call void @_ZN8goal2sat3imp12update_modelER3refI5modelE(ptr noundef nonnull align 8 dereferenceable(300) %11, ptr noundef nonnull align 8 dereferenceable(8) %12)
  br label %13

13:                                               ; preds = %9, %2
  ret void
}