; Function Attrs: mustprogress uwtable
define hidden void @_ZN8goal2sat12update_modelER3refI5modelE(ptr noundef nonnull readonly align 8 captures(none) dereferenceable(12) %0, ptr noundef nonnull align 8 dereferenceable(8) %1) local_unnamed_addr #8 align 2 {
  %3 = load ptr, ptr %0, align 8, !tbaa !3
  %.not = icmp eq ptr %3, null
  br i1 %.not, label %_ZN8goal2sat3imp12update_modelER3refI5modelE.exit, label %4

4:                                                ; preds = %2
  %5 = getelementptr inbounds nuw i8, ptr %3, i64 192
  %6 = load ptr, ptr %5, align 8, !tbaa !13
  %7 = load ptr, ptr %6, align 8, !tbaa !11
  %8 = getelementptr inbounds nuw i8, ptr %7, i64 88
  %9 = load ptr, ptr %8, align 8
  %10 = tail call noundef ptr %9(ptr noundef nonnull align 8 dereferenceable(16) %6)
  %11 = icmp eq ptr %10, null
  br i1 %11, label %_ZN8goal2sat3imp12update_modelER3refI5modelE.exit, label %12

12:                                               ; preds = %4
  %13 = tail call ptr @__dynamic_cast(ptr nonnull %10, ptr nonnull @_ZTIN3sat9extensionE, ptr nonnull @_ZTIN3euf6solverE, i64 0) #25
  %.not.i = icmp eq ptr %13, null
  br i1 %.not.i, label %_ZN8goal2sat3imp12update_modelER3refI5modelE.exit, label %14

14:                                               ; preds = %12
  tail call void @_ZN3euf6solver12update_modelER3refI5modelEb(ptr noundef nonnull align 8 dereferenceable(8456) %13, ptr noundef nonnull align 8 dereferenceable(8) %1, i1 noundef zeroext true)
  br label %_ZN8goal2sat3imp12update_modelER3refI5modelE.exit

_ZN8goal2sat3imp12update_modelER3refI5modelE.exit: ; preds = %14, %12, %4, %2
  ret void
}